target datalayout = "e-m:e-p270:32:32-p271:32:32-p272:64:64-i64:64-i128:128-f80:128-n8:16:32:64-S128"
target triple = "x86_64-pc-linux-gnu"

%"class.OpenColorIO_v2_5dev::Renderer_ACES_RedMod03_Fwd" = type <{ %"class.OpenColorIO_v2_5dev::OpCPU", float, float, float, [4 x i8] }>
%"class.OpenColorIO_v2_5dev::OpCPU" = type { ptr }

; Function Attrs: inlinehint mustprogress nounwind uwtable
define linkonce_odr noundef nonnull align 4 dereferenceable(4) ptr @_ZSt3minIfERKT_S2_S2_(ptr noundef nonnull align 4 dereferenceable(4) %0, ptr noundef nonnull align 4 dereferenceable(4) %1) #10 comdat {
  %3 = alloca ptr, align 8
  %4 = alloca ptr, align 8
  %5 = alloca ptr, align 8
  store ptr %0, ptr %4, align 8, !tbaa !29
  store ptr %1, ptr %5, align 8, !tbaa !29
  %6 = load ptr, ptr %5, align 8, !tbaa !29
  %7 = load float, ptr %6, align 4, !tbaa !31
  %8 = load ptr, ptr %4, align 8, !tbaa !29
  %9 = load float, ptr %8, align 4, !tbaa !31
  %10 = fcmp olt float %7, %9
  br i1 %10, label %11, label %13

11:                                               ; preds = %2
  %12 = load ptr, ptr %5, align 8, !tbaa !29
  store ptr %12, ptr %3, align 8
  br label %15

13:                                               ; preds = %2
  %14 = load ptr, ptr %4, align 8, !tbaa !29
  store ptr %14, ptr %3, align 8
  br label %15

15:                                               ; preds = %13, %11
  %16 = load ptr, ptr %3, align 8
  ret ptr %16
}

; Function Attrs: inlinehint mustprogress nounwind uwtable
define linkonce_odr noundef float @_ZSt5atan2ff(float noundef %0, float noundef %1) #10 comdat {
  %3 = alloca float, align 4
  %4 = alloca float, align 4
  store float %0, ptr %3, align 4, !tbaa !31
  store float %1, ptr %4, align 4, !tbaa !31
  %5 = load float, ptr %3, align 4, !tbaa !31
  %6 = load float, ptr %4, align 4, !tbaa !31
  %7 = call float @atan2f(float noundef %5, float noundef %6) #3, !tbaa !34
  ret float %7
}

; Function Attrs: inlinehint mustprogress nounwind uwtable
define linkonce_odr noundef nonnull align 4 dereferenceable(4) ptr @_ZSt3maxIfERKT_S2_S2_(ptr noundef nonnull align 4 dereferenceable(4) %0, ptr noundef nonnull align 4 dereferenceable(4) %1) #10 comdat {
  %3 = alloca ptr, align 8
  %4 = alloca ptr, align 8
  %5 = alloca ptr, align 8
  store ptr %0, ptr %4, align 8, !tbaa !29
  store ptr %1, ptr %5, align 8, !tbaa !29
  %6 = load ptr, ptr %4, align 8, !tbaa !29
  %7 = load float, ptr %6, align 4, !tbaa !31
  %8 = load ptr, ptr %5, align 8, !tbaa !29
  %9 = load float, ptr %8, align 4, !tbaa !31
  %10 = fcmp olt float %7, %9
  br i1 %10, label %11, label %13

11:                                               ; preds = %2
  %12 = load ptr, ptr %5, align 8, !tbaa !29
  store ptr %12, ptr %3, align 8
  br label %15

13:                                               ; preds = %2
  %14 = load ptr, ptr %4, align 8, !tbaa !29
  store ptr %14, ptr %3, align 8
  br label %15

15:                                               ; preds = %13, %11
  %16 = load ptr, ptr %3, align 8
  ret ptr %16
}

; Function Attrs: inlinehint mustprogress uwtable
define linkonce_odr hidden noundef float @_ZN19OpenColorIO_v2_5dev13CalcSatWeightEffff(float noundef %0, float noundef %1, float noundef %2, float noundef %3) #8 comdat {
  %5 = alloca float, align 4
  %6 = alloca float, align 4
  %7 = alloca float, align 4
  %8 = alloca float, align 4
  %9 = alloca float, align 4
  %10 = alloca float, align 4
  %11 = alloca float, align 4
  %12 = alloca float, align 4
  %13 = alloca float, align 4
  store float %0, ptr %5, align 4, !tbaa !31
  store float %1, ptr %6, align 4, !tbaa !31
  store float %2, ptr %7, align 4, !tbaa !31
  store float %3, ptr %8, align 4, !tbaa !31
  call void @llvm.lifetime.start.p0(i64 4, ptr %9) #3
  %14 = call noundef nonnull align 4 dereferenceable(4) ptr @_ZSt3minIfERKT_S2_S2_(ptr noundef nonnull align 4 dereferenceable(4) %6, ptr noundef nonnull align 4 dereferenceable(4) %7)
  %15 = call noundef nonnull align 4 dereferenceable(4) ptr @_ZSt3minIfERKT_S2_S2_(ptr noundef nonnull align 4 dereferenceable(4) %5, ptr noundef nonnull align 4 dereferenceable(4) %14)
  %16 = load float, ptr %15, align 4, !tbaa !31
  store float %16, ptr %9, align 4, !tbaa !31
  call void @llvm.lifetime.start.p0(i64 4, ptr %10) #3
  %17 = call noundef nonnull align 4 dereferenceable(4) ptr @_ZSt3maxIfERKT_S2_S2_(ptr noundef nonnull align 4 dereferenceable(4) %6, ptr noundef nonnull align 4 dereferenceable(4) %7)
  %18 = call noundef nonnull align 4 dereferenceable(4) ptr @_ZSt3maxIfERKT_S2_S2_(ptr noundef nonnull align 4 dereferenceable(4) %5, ptr noundef nonnull align 4 dereferenceable(4) %17)
  %19 = load float, ptr %18, align 4, !tbaa !31
  store float %19, ptr %10, align 4, !tbaa !31
  call void @llvm.lifetime.start.p0(i64 4, ptr %11) #3
  call void @llvm.lifetime.start.p0(i64 4, ptr %12) #3
  store float 0x3DDB7CDFE0000000, ptr %12, align 4, !tbaa !31
  %20 = call noundef nonnull align 4 dereferenceable(4) ptr @_ZSt3maxIfERKT_S2_S2_(ptr noundef nonnull align 4 dereferenceable(4) %12, ptr noundef nonnull align 4 dereferenceable(4) %10)
  %21 = load float, ptr %20, align 4, !tbaa !31
  call void @llvm.lifetime.start.p0(i64 4, ptr %13) #3
  store float 0x3DDB7CDFE0000000, ptr %13, align 4, !tbaa !31
  %22 = call noundef nonnull align 4 dereferenceable(4) ptr @_ZSt3maxIfERKT_S2_S2_(ptr noundef nonnull align 4 dereferenceable(4) %13, ptr noundef nonnull align 4 dereferenceable(4) %9)
  %23 = load float, ptr %22, align 4, !tbaa !31
  %24 = fsub float %21, %23
  %25 = call noundef nonnull align 4 dereferenceable(4) ptr @_ZSt3maxIfERKT_S2_S2_(ptr noundef nonnull align 4 dereferenceable(4) %8, ptr noundef nonnull align 4 dereferenceable(4) %10)
  %26 = load float, ptr %25, align 4, !tbaa !31
  %27 = fdiv float %24, %26
  call void @llvm.lifetime.end.p0(i64 4, ptr %13) #3
  call void @llvm.lifetime.end.p0(i64 4, ptr %12) #3
  store float %27, ptr %11, align 4, !tbaa !31
  %28 = load float, ptr %11, align 4, !tbaa !31
  call void @llvm.lifetime.end.p0(i64 4, ptr %11) #3
  call void @llvm.lifetime.end.p0(i64 4, ptr %10) #3
  call void @llvm.lifetime.end.p0(i64 4, ptr %9) #3
  ret float %28
}

; Function Attrs: inlinehint mustprogress uwtable
define linkonce_odr hidden noundef float @_ZN19OpenColorIO_v2_5dev13CalcHueWeightEffff(float noundef %0, float noundef %1, float noundef %2, float noundef %3) #8 comdat {
  %5 = alloca float, align 4
  %6 = alloca float, align 4
  %7 = alloca float, align 4
  %8 = alloca float, align 4
  %9 = alloca float, align 4
  %10 = alloca float, align 4
  %11 = alloca float, align 4
  %12 = alloca float, align 4
  %13 = alloca i32, align 4
  %14 = alloca float, align 4
  %15 = alloca float, align 4
  %16 = alloca ptr, align 8
  store float %0, ptr %5, align 4, !tbaa !31
  store float %1, ptr %6, align 4, !tbaa !31
  store float %2, ptr %7, align 4, !tbaa !31
  store float %3, ptr %8, align 4, !tbaa !31
  call void @llvm.lifetime.start.p0(i64 4, ptr %9) #3
  %17 = load float, ptr %5, align 4, !tbaa !31
  %18 = load float, ptr %6, align 4, !tbaa !31
  %19 = load float, ptr %7, align 4, !tbaa !31
  %20 = fadd float %18, %19
  %21 = fneg float %20
  %22 = call float @llvm.fmuladd.f32(float 2.000000e+00, float %17, float %21)
  store float %22, ptr %9, align 4, !tbaa !31
  call void @llvm.lifetime.start.p0(i64 4, ptr %10) #3
  %23 = load float, ptr %6, align 4, !tbaa !31
  %24 = load float, ptr %7, align 4, !tbaa !31
  %25 = fsub float %23, %24
  %26 = fmul float 0x3FFBB67AE0000000, %25
  store float %26, ptr %10, align 4, !tbaa !31
  call void @llvm.lifetime.start.p0(i64 4, ptr %11) #3
  %27 = load float, ptr %10, align 4, !tbaa !31
  %28 = load float, ptr %9, align 4, !tbaa !31
  %29 = call noundef float @_ZSt5atan2ff(float noundef %27, float noundef %28)
  store float %29, ptr %11, align 4, !tbaa !31
  call void @llvm.lifetime.start.p0(i64 4, ptr %12) #3
  %30 = load float, ptr %11, align 4, !tbaa !31
  %31 = load float, ptr %8, align 4, !tbaa !31
  %32 = call float @llvm.fmuladd.f32(float %30, float %31, float 2.000000e+00)
  store float %32, ptr %12, align 4, !tbaa !31
  call void @llvm.lifetime.start.p0(i64 4, ptr %13) #3
  %33 = load float, ptr %12, align 4, !tbaa !31
  %34 = fptosi float %33 to i32
  store i32 %34, ptr %13, align 4, !tbaa !34
  call void @llvm.lifetime.start.p0(i64 4, ptr %14) #3
  store float 0.000000e+00, ptr %14, align 4, !tbaa !31
  %35 = load i32, ptr %13, align 4, !tbaa !34
  %36 = icmp sge i32 %35, 0
  br i1 %36, label %37, label %67

37:                                               ; preds = %4
  %38 = load i32, ptr %13, align 4, !tbaa !34
  %39 = icmp slt i32 %38, 4
  br i1 %39, label %40, label %67

40:                                               ; preds = %37
  call void @llvm.lifetime.start.p0(i64 4, ptr %15) #3
  %41 = load float, ptr %12, align 4, !tbaa !31
  %42 = load i32, ptr %13, align 4, !tbaa !34
  %43 = sitofp i32 %42 to float
  %44 = fsub float %41, %43
  store float %44, ptr %15, align 4, !tbaa !31
  call void @llvm.lifetime.start.p0(i64 8, ptr %16) #3
  %45 = load i32, ptr %13, align 4, !tbaa !34
  %46 = sext i32 %45 to i64
  %47 = getelementptr inbounds [4 x [4 x float]], ptr @_ZZN19OpenColorIO_v2_5dev13CalcHueWeightEffffE2_M, i64 0, i64 %46
  %48 = getelementptr inbounds [4 x float], ptr %47, i64 0, i64 0
  store ptr %48, ptr %16, align 8, !tbaa !29
  %49 = load ptr, ptr %16, align 8, !tbaa !29
  %50 = getelementptr inbounds float, ptr %49, i64 3
  %51 = load float, ptr %50, align 4, !tbaa !31
  %52 = load float, ptr %15, align 4, !tbaa !31
  %53 = load ptr, ptr %16, align 8, !tbaa !29
  %54 = getelementptr inbounds float, ptr %53, i64 2
  %55 = load float, ptr %54, align 4, !tbaa !31
  %56 = load float, ptr %15, align 4, !tbaa !31
  %57 = load ptr, ptr %16, align 8, !tbaa !29
  %58 = getelementptr inbounds float, ptr %57, i64 1
  %59 = load float, ptr %58, align 4, !tbaa !31
  %60 = load float, ptr %15, align 4, !tbaa !31
  %61 = load ptr, ptr %16, align 8, !tbaa !29
  %62 = getelementptr inbounds float, ptr %61, i64 0
  %63 = load float, ptr %62, align 4, !tbaa !31
  %64 = call float @llvm.fmuladd.f32(float %60, float %63, float %59)
  %65 = call float @llvm.fmuladd.f32(float %56, float %64, float %55)
  %66 = call float @llvm.fmuladd.f32(float %52, float %65, float %51)
  store float %66, ptr %14, align 4, !tbaa !31
  call void @llvm.lifetime.end.p0(i64 8, ptr %16) #3
  call void @llvm.lifetime.end.p0(i64 4, ptr %15) #3
  br label %67

67:                                               ; preds = %40, %37, %4
  %68 = load float, ptr %14, align 4, !tbaa !31
  call void @llvm.lifetime.end.p0(i64 4, ptr %14) #3
  call void @llvm.lifetime.end.p0(i64 4, ptr %13) #3
  call void @llvm.lifetime.end.p0(i64 4, ptr %12) #3
  call void @llvm.lifetime.end.p0(i64 4, ptr %11) #3
  call void @llvm.lifetime.end.p0(i64 4, ptr %10) #3
  call void @llvm.lifetime.end.p0(i64 4, ptr %9) #3
  ret float %68
}

; Function Attrs: mustprogress uwtable
define hidden void @_ZNK19OpenColorIO_v2_5dev26Renderer_ACES_RedMod03_Fwd5applyEPKvPvl(ptr noundef nonnull align 8 dereferenceable(20) %0, ptr noundef %1, ptr noundef %2, i64 noundef %3) unnamed_addr #6 align 2 {
  %5 = alloca ptr, align 8
  %6 = alloca ptr, align 8
  %7 = alloca ptr, align 8
  %8 = alloca i64, align 8
  %9 = alloca ptr, align 8
  %10 = alloca ptr, align 8
  %11 = alloca i64, align 8
  %12 = alloca float, align 4
  %13 = alloca float, align 4
  %14 = alloca float, align 4
  %15 = alloca float, align 4
  %16 = alloca float, align 4
  %17 = alloca float, align 4
  %18 = alloca float, align 4
  %19 = alloca float, align 4
  %20 = alloca float, align 4
  %21 = alloca float, align 4
  %22 = alloca float, align 4
  %23 = alloca float, align 4
  store ptr %0, ptr %5, align 8, !tbaa !12
  store ptr %1, ptr %6, align 8, !tbaa !26
  store ptr %2, ptr %7, align 8, !tbaa !26
  store i64 %3, ptr %8, align 8, !tbaa !27
  %24 = load ptr, ptr %5, align 8
  call void @llvm.lifetime.start.p0(i64 8, ptr %9) #3
  %25 = load ptr, ptr %6, align 8, !tbaa !26
  store ptr %25, ptr %9, align 8, !tbaa !29
  call void @llvm.lifetime.start.p0(i64 8, ptr %10) #3
  %26 = load ptr, ptr %7, align 8, !tbaa !26
  store ptr %26, ptr %10, align 8, !tbaa !29
  call void @llvm.lifetime.start.p0(i64 8, ptr %11) #3
  store i64 0, ptr %11, align 8, !tbaa !27
  br label %27

27:                                               ; preds = %123, %4
  %28 = load i64, ptr %11, align 8, !tbaa !27
  %29 = load i64, ptr %8, align 8, !tbaa !27
  %30 = icmp slt i64 %28, %29
  br i1 %30, label %32, label %31

31:                                               ; preds = %27
  call void @llvm.lifetime.end.p0(i64 8, ptr %11) #3
  br label %126

32:                                               ; preds = %27
  call void @llvm.lifetime.start.p0(i64 4, ptr %12) #3
  %33 = load ptr, ptr %9, align 8, !tbaa !29
  %34 = getelementptr inbounds float, ptr %33, i64 0
  %35 = load float, ptr %34, align 4, !tbaa !31
  store float %35, ptr %12, align 4, !tbaa !31
  call void @llvm.lifetime.start.p0(i64 4, ptr %13) #3
  %36 = load ptr, ptr %9, align 8, !tbaa !29
  %37 = getelementptr inbounds float, ptr %36, i64 1
  %38 = load float, ptr %37, align 4, !tbaa !31
  store float %38, ptr %13, align 4, !tbaa !31
  call void @llvm.lifetime.start.p0(i64 4, ptr %14) #3
  %39 = load ptr, ptr %9, align 8, !tbaa !29
  %40 = getelementptr inbounds float, ptr %39, i64 2
  %41 = load float, ptr %40, align 4, !tbaa !31
  store float %41, ptr %14, align 4, !tbaa !31
  call void @llvm.lifetime.start.p0(i64 4, ptr %15) #3
  %42 = load float, ptr %12, align 4, !tbaa !31
  %43 = load float, ptr %13, align 4, !tbaa !31
  %44 = load float, ptr %14, align 4, !tbaa !31
  %45 = getelementptr inbounds nuw %"class.OpenColorIO_v2_5dev::Renderer_ACES_RedMod03_Fwd", ptr %24, i32 0, i32 3
  %46 = load float, ptr %45, align 8, !tbaa !23
  %47 = call noundef float @_ZN19OpenColorIO_v2_5dev13CalcHueWeightEffff(float noundef %42, float noundef %43, float noundef %44, float noundef %46)
  store float %47, ptr %15, align 4, !tbaa !31
  %48 = load float, ptr %15, align 4, !tbaa !31
  %49 = fcmp ogt float %48, 0.000000e+00
  br i1 %49, label %50, label %104

50:                                               ; preds = %32
  call void @llvm.lifetime.start.p0(i64 4, ptr %16) #3
  %51 = load float, ptr %12, align 4, !tbaa !31
  %52 = load float, ptr %13, align 4, !tbaa !31
  %53 = load float, ptr %14, align 4, !tbaa !31
  %54 = call noundef float @_ZN19OpenColorIO_v2_5dev13CalcSatWeightEffff(float noundef %51, float noundef %52, float noundef %53, float noundef 0x3F847AE140000000)
  store float %54, ptr %16, align 4, !tbaa !31
  call void @llvm.lifetime.start.p0(i64 4, ptr %17) #3
  %55 = load float, ptr %12, align 4, !tbaa !31
  %56 = load float, ptr %15, align 4, !tbaa !31
  %57 = load float, ptr %16, align 4, !tbaa !31
  %58 = fmul float %56, %57
  %59 = getelementptr inbounds nuw %"class.OpenColorIO_v2_5dev::Renderer_ACES_RedMod03_Fwd", ptr %24, i32 0, i32 2
  %60 = load float, ptr %59, align 4, !tbaa !22
  %61 = load float, ptr %12, align 4, !tbaa !31
  %62 = fsub float %60, %61
  %63 = fmul float %58, %62
  %64 = getelementptr inbounds nuw %"class.OpenColorIO_v2_5dev::Renderer_ACES_RedMod03_Fwd", ptr %24, i32 0, i32 1
  %65 = load float, ptr %64, align 8, !tbaa !18
  %66 = call float @llvm.fmuladd.f32(float %63, float %65, float %55)
  store float %66, ptr %17, align 4, !tbaa !31
  %67 = load float, ptr %13, align 4, !tbaa !31
  %68 = load float, ptr %14, align 4, !tbaa !31
  %69 = fcmp oge float %67, %68
  br i1 %69, label %70, label %86

70:                                               ; preds = %50
  call void @llvm.lifetime.start.p0(i64 4, ptr %18) #3
  %71 = load float, ptr %13, align 4, !tbaa !31
  %72 = load float, ptr %14, align 4, !tbaa !31
  %73 = fsub float %71, %72
  call void @llvm.lifetime.start.p0(i64 4, ptr %19) #3
  store float 0x3DDB7CDFE0000000, ptr %19, align 4, !tbaa !31
  call void @llvm.lifetime.start.p0(i64 4, ptr %20) #3
  %74 = load float, ptr %12, align 4, !tbaa !31
  %75 = load float, ptr %14, align 4, !tbaa !31
  %76 = fsub float %74, %75
  store float %76, ptr %20, align 4, !tbaa !31
  %77 = call noundef nonnull align 4 dereferenceable(4) ptr @_ZSt3maxIfERKT_S2_S2_(ptr noundef nonnull align 4 dereferenceable(4) %19, ptr noundef nonnull align 4 dereferenceable(4) %20)
  %78 = load float, ptr %77, align 4, !tbaa !31
  %79 = fdiv float %73, %78
  call void @llvm.lifetime.end.p0(i64 4, ptr %20) #3
  call void @llvm.lifetime.end.p0(i64 4, ptr %19) #3
  store float %79, ptr %18, align 4, !tbaa !31
  %80 = load float, ptr %18, align 4, !tbaa !31
  %81 = load float, ptr %17, align 4, !tbaa !31
  %82 = load float, ptr %14, align 4, !tbaa !31
  %83 = fsub float %81, %82
  %84 = load float, ptr %14, align 4, !tbaa !31
  %85 = call float @llvm.fmuladd.f32(float %80, float %83, float %84)
  store float %85, ptr %13, align 4, !tbaa !31
  call void @llvm.lifetime.end.p0(i64 4, ptr %18) #3
  br label %102

86:                                               ; preds = %50
  call void @llvm.lifetime.start.p0(i64 4, ptr %21) #3
  %87 = load float, ptr %14, align 4, !tbaa !31
  %88 = load float, ptr %13, align 4, !tbaa !31
  %89 = fsub float %87, %88
  call void @llvm.lifetime.start.p0(i64 4, ptr %22) #3
  store float 0x3DDB7CDFE0000000, ptr %22, align 4, !tbaa !31
  call void @llvm.lifetime.start.p0(i64 4, ptr %23) #3
  %90 = load float, ptr %12, align 4, !tbaa !31
  %91 = load float, ptr %13, align 4, !tbaa !31
  %92 = fsub float %90, %91
  store float %92, ptr %23, align 4, !tbaa !31
  %93 = call noundef nonnull align 4 dereferenceable(4) ptr @_ZSt3maxIfERKT_S2_S2_(ptr noundef nonnull align 4 dereferenceable(4) %22, ptr noundef nonnull align 4 dereferenceable(4) %23)
  %94 = load float, ptr %93, align 4, !tbaa !31
  %95 = fdiv float %89, %94
  call void @llvm.lifetime.end.p0(i64 4, ptr %23) #3
  call void @llvm.lifetime.end.p0(i64 4, ptr %22) #3
  store float %95, ptr %21, align 4, !tbaa !31
  %96 = load float, ptr %21, align 4, !tbaa !31
  %97 = load float, ptr %17, align 4, !tbaa !31
  %98 = load float, ptr %13, align 4, !tbaa !31
  %99 = fsub float %97, %98
  %100 = load float, ptr %13, align 4, !tbaa !31
  %101 = call float @llvm.fmuladd.f32(float %96, float %99, float %100)
  store float %101, ptr %14, align 4, !tbaa !31
  call void @llvm.lifetime.end.p0(i64 4, ptr %21) #3
  br label %102

102:                                              ; preds = %86, %70
  %103 = load float, ptr %17, align 4, !tbaa !31
  store float %103, ptr %12, align 4, !tbaa !31
  call void @llvm.lifetime.end.p0(i64 4, ptr %17) #3
  call void @llvm.lifetime.end.p0(i64 4, ptr %16) #3
  br label %104

104:                                              ; preds = %102, %32
  %105 = load float, ptr %12, align 4, !tbaa !31
  %106 = load ptr, ptr %10, align 8, !tbaa !29
  %107 = getelementptr inbounds float, ptr %106, i64 0
  store float %105, ptr %107, align 4, !tbaa !31
  %108 = load float, ptr %13, align 4, !tbaa !31
  %109 = load ptr, ptr %10, align 8, !tbaa !29
  %110 = getelementptr inbounds float, ptr %109, i64 1
  store float %108, ptr %110, align 4, !tbaa !31
  %111 = load float, ptr %14, align 4, !tbaa !31
  %112 = load ptr, ptr %10, align 8, !tbaa !29
  %113 = getelementptr inbounds float, ptr %112, i64 2
  store float %111, ptr %113, align 4, !tbaa !31
  %114 = load ptr, ptr %9, align 8, !tbaa !29
  %115 = getelementptr inbounds float, ptr %114, i64 3
  %116 = load float, ptr %115, align 4, !tbaa !31
  %117 = load ptr, ptr %10, align 8, !tbaa !29
  %118 = getelementptr inbounds float, ptr %117, i64 3
  store float %116, ptr %118, align 4, !tbaa !31
  %119 = load ptr, ptr %9, align 8, !tbaa !29
  %120 = getelementptr inbounds float, ptr %119, i64 4
  store ptr %120, ptr %9, align 8, !tbaa !29
  %121 = load ptr, ptr %10, align 8, !tbaa !29
  %122 = getelementptr inbounds float, ptr %121, i64 4
  store ptr %122, ptr %10, align 8, !tbaa !29
  call void @llvm.lifetime.end.p0(i64 4, ptr %15) #3
  call void @llvm.lifetime.end.p0(i64 4, ptr %14) #3
  call void @llvm.lifetime.end.p0(i64 4, ptr %13) #3
  call void @llvm.lifetime.end.p0(i64 4, ptr %12) #3
  br label %123

123:                                              ; preds = %104
  %124 = load i64, ptr %11, align 8, !tbaa !27
  %125 = add nsw i64 %124, 1
  store i64 %125, ptr %11, align 8, !tbaa !27
  br label %27, !llvm.loop !32

126:                                              ; preds = %31
  call void @llvm.lifetime.end.p0(i64 8, ptr %10) #3
  call void @llvm.lifetime.end.p0(i64 8, ptr %9) #3
  ret void
}