; Function Attrs: mustprogress nofree nounwind memory(write, argmem: readwrite) uwtable
define hidden void @_ZNK19OpenColorIO_v2_5dev26Renderer_ACES_RedMod03_Fwd5applyEPKvPvl(ptr noundef nonnull readonly align 8 captures(none) dereferenceable(20) %0, ptr noundef readonly captures(none) %1, ptr noundef writeonly captures(none) %2, i64 noundef %3) unnamed_addr #5 align 2 {
  %5 = icmp sgt i64 %3, 0
  br i1 %5, label %.lr.ph, label %._crit_edge

.lr.ph:                                           ; preds = %4
  %6 = getelementptr inbounds nuw i8, ptr %0, i64 16
  %7 = getelementptr inbounds nuw i8, ptr %0, i64 12
  %8 = getelementptr inbounds nuw i8, ptr %0, i64 8
  br label %9

._crit_edge:                                      ; preds = %_ZN19OpenColorIO_v2_5dev13CalcHueWeightEffff.exit.thread, %4
  ret void

9:                                                ; preds = %.lr.ph, %_ZN19OpenColorIO_v2_5dev13CalcHueWeightEffff.exit.thread
  %.068 = phi ptr [ %1, %.lr.ph ], [ %76, %_ZN19OpenColorIO_v2_5dev13CalcHueWeightEffff.exit.thread ]
  %.04867 = phi ptr [ %2, %.lr.ph ], [ %77, %_ZN19OpenColorIO_v2_5dev13CalcHueWeightEffff.exit.thread ]
  %.04966 = phi i64 [ 0, %.lr.ph ], [ %78, %_ZN19OpenColorIO_v2_5dev13CalcHueWeightEffff.exit.thread ]
  %10 = load float, ptr %.068, align 4, !tbaa !13
  %11 = getelementptr inbounds nuw i8, ptr %.068, i64 4
  %12 = load float, ptr %11, align 4, !tbaa !13
  %13 = getelementptr inbounds nuw i8, ptr %.068, i64 8
  %14 = load float, ptr %13, align 4, !tbaa !13
  %15 = load float, ptr %6, align 8, !tbaa !12
  %16 = fadd float %12, %14
  %17 = fneg float %16
  %18 = tail call float @llvm.fmuladd.f32(float %10, float 2.000000e+00, float %17)
  %19 = fsub float %12, %14
  %20 = fmul float %19, 0x3FFBB67AE0000000
  %21 = tail call noundef float @atan2f(float noundef %20, float noundef %18) #28, !tbaa !14
  %22 = tail call float @llvm.fmuladd.f32(float %21, float %15, float 2.000000e+00)
  %23 = fptosi float %22 to i32
  %or.cond.i = icmp ult i32 %23, 4
  br i1 %or.cond.i, label %_ZN19OpenColorIO_v2_5dev13CalcHueWeightEffff.exit, label %_ZN19OpenColorIO_v2_5dev13CalcHueWeightEffff.exit.thread

_ZN19OpenColorIO_v2_5dev13CalcHueWeightEffff.exit: ; preds = %9
  %24 = uitofp nneg i32 %23 to float
  %25 = fsub float %22, %24
  %26 = zext nneg i32 %23 to i64
  %27 = getelementptr inbounds nuw [4 x [4 x float]], ptr @_ZZN19OpenColorIO_v2_5dev13CalcHueWeightEffffE2_M, i64 0, i64 %26
  %28 = getelementptr inbounds nuw i8, ptr %27, i64 12
  %29 = load float, ptr %28, align 4, !tbaa !13
  %30 = getelementptr inbounds nuw i8, ptr %27, i64 8
  %31 = load float, ptr %30, align 8, !tbaa !13
  %32 = getelementptr inbounds nuw i8, ptr %27, i64 4
  %33 = load float, ptr %32, align 4, !tbaa !13
  %34 = load float, ptr %27, align 16, !tbaa !13
  %35 = tail call float @llvm.fmuladd.f32(float %25, float %34, float %33)
  %36 = tail call float @llvm.fmuladd.f32(float %25, float %35, float %31)
  %37 = tail call float @llvm.fmuladd.f32(float %25, float %36, float %29)
  %38 = fcmp ogt float %37, 0.000000e+00
  br i1 %38, label %39, label %_ZN19OpenColorIO_v2_5dev13CalcHueWeightEffff.exit.thread

39:                                               ; preds = %_ZN19OpenColorIO_v2_5dev13CalcHueWeightEffff.exit
  %40 = fcmp olt float %14, %12
  %41 = select i1 %40, float %14, float %12
  %42 = fcmp olt float %41, %10
  %.sroa.speculated26.i = select i1 %42, float %41, float %10
  %43 = fcmp olt float %12, %14
  %44 = select i1 %43, float %14, float %12
  %45 = fcmp olt float %10, %44
  %.sroa.speculated23.i = select i1 %45, float %44, float %10
  %46 = fcmp ogt float %.sroa.speculated23.i, 0x3DDB7CDFE0000000
  %.sroa.speculated8.i = select i1 %46, float %.sroa.speculated23.i, float 0x3DDB7CDFE0000000
  %47 = fcmp ogt float %.sroa.speculated26.i, 0x3DDB7CDFE0000000
  %.sroa.speculated.i = select i1 %47, float %.sroa.speculated26.i, float 0x3DDB7CDFE0000000
  %48 = fsub float %.sroa.speculated8.i, %.sroa.speculated.i
  %49 = fcmp ogt float %.sroa.speculated23.i, 0x3F847AE140000000
  %.sroa.speculated13.i = select i1 %49, float %.sroa.speculated23.i, float 0x3F847AE140000000
  %50 = fdiv float %48, %.sroa.speculated13.i
  %51 = fmul float %50, %37
  %52 = load float, ptr %7, align 4, !tbaa !11
  %53 = fsub float %52, %10
  %54 = fmul float %51, %53
  %55 = load float, ptr %8, align 8, !tbaa !6
  %56 = tail call float @llvm.fmuladd.f32(float %54, float %55, float %10)
  %57 = fcmp ult float %12, %14
  br i1 %57, label %64, label %58

58:                                               ; preds = %39
  %59 = fsub float %10, %14
  %60 = fcmp ogt float %59, 0x3DDB7CDFE0000000
  %.sroa.speculated61 = select i1 %60, float %59, float 0x3DDB7CDFE0000000
  %61 = fdiv float %19, %.sroa.speculated61
  %62 = fsub float %56, %14
  %63 = tail call float @llvm.fmuladd.f32(float %61, float %62, float %14)
  br label %_ZN19OpenColorIO_v2_5dev13CalcHueWeightEffff.exit.thread

64:                                               ; preds = %39
  %65 = fsub float %14, %12
  %66 = fsub float %10, %12
  %67 = fcmp ogt float %66, 0x3DDB7CDFE0000000
  %.sroa.speculated = select i1 %67, float %66, float 0x3DDB7CDFE0000000
  %68 = fdiv float %65, %.sroa.speculated
  %69 = fsub float %56, %12
  %70 = tail call float @llvm.fmuladd.f32(float %68, float %69, float %12)
  br label %_ZN19OpenColorIO_v2_5dev13CalcHueWeightEffff.exit.thread

_ZN19OpenColorIO_v2_5dev13CalcHueWeightEffff.exit.thread: ; preds = %9, %58, %64, %_ZN19OpenColorIO_v2_5dev13CalcHueWeightEffff.exit
  %.052 = phi float [ %14, %_ZN19OpenColorIO_v2_5dev13CalcHueWeightEffff.exit ], [ %14, %58 ], [ %70, %64 ], [ %14, %9 ]
  %.051 = phi float [ %12, %_ZN19OpenColorIO_v2_5dev13CalcHueWeightEffff.exit ], [ %63, %58 ], [ %12, %64 ], [ %12, %9 ]
  %.050 = phi float [ %10, %_ZN19OpenColorIO_v2_5dev13CalcHueWeightEffff.exit ], [ %56, %58 ], [ %56, %64 ], [ %10, %9 ]
  store float %.050, ptr %.04867, align 4, !tbaa !13
  %71 = getelementptr inbounds nuw i8, ptr %.04867, i64 4
  store float %.051, ptr %71, align 4, !tbaa !13
  %72 = getelementptr inbounds nuw i8, ptr %.04867, i64 8
  store float %.052, ptr %72, align 4, !tbaa !13
  %73 = getelementptr inbounds nuw i8, ptr %.068, i64 12
  %74 = load float, ptr %73, align 4, !tbaa !13
  %75 = getelementptr inbounds nuw i8, ptr %.04867, i64 12
  store float %74, ptr %75, align 4, !tbaa !13
  %76 = getelementptr inbounds nuw i8, ptr %.068, i64 16
  %77 = getelementptr inbounds nuw i8, ptr %.04867, i64 16
  %78 = add nuw nsw i64 %.04966, 1
  %exitcond.not = icmp eq i64 %78, %3
  br i1 %exitcond.not, label %._crit_edge, label %9, !llvm.loop !16
}